; ModuleID = 'source-C-CXX/56/1522.c'
source_filename = "source-C-CXX/56/1522.c"
target datalayout = "e-m:e-p270:32:32-p271:32:32-p272:64:64-i64:64-f80:128-n8:16:32:64-S128"
target triple = "x86_64-pc-linux-gnu"

@.str = private unnamed_addr constant [4 x i8] c"%d\0A\00", align 1
@.str.1 = private unnamed_addr constant [4 x i8] c"%s\0A\00", align 1
@.str.2 = private unnamed_addr constant [3 x i8] c"er\00", align 1
@.str.3 = private unnamed_addr constant [3 x i8] c"ly\00", align 1
@.str.4 = private unnamed_addr constant [4 x i8] c"ing\00", align 1

; Function Attrs: nofree nounwind sspstrong uwtable
define dso_local i32 @main() local_unnamed_addr #0 {
  %1 = alloca i32, align 4
  %2 = alloca [50 x i8], align 16
  %3 = getelementptr inbounds [50 x i8], [50 x i8]* %2, i64 0, i64 0
  %4 = alloca [50 x i8], align 16
  %5 = getelementptr inbounds [50 x i8], [50 x i8]* %4, i64 0, i64 0
  %6 = bitcast i32* %1 to i8*
  call void @llvm.lifetime.start.p0i8(i64 4, i8* nonnull %6) #6
  %7 = call i32 (i8*, ...) @__isoc99_scanf(i8* getelementptr inbounds ([4 x i8], [4 x i8]* @.str, i64 0, i64 0), i32* nonnull %1)
  %8 = getelementptr inbounds [50 x i8], [50 x i8]* %2, i64 0, i64 0
  call void @llvm.lifetime.start.p0i8(i64 50, i8* nonnull %8) #6
  %9 = getelementptr inbounds [50 x i8], [50 x i8]* %4, i64 0, i64 0
  call void @llvm.lifetime.start.p0i8(i64 50, i8* nonnull %9) #6
  %10 = load i32, i32* %1, align 4, !tbaa !5
  %11 = icmp sgt i32 %10, 0
  br i1 %11, label %12, label %53

12:                                               ; preds = %0, %49
  %13 = phi i32 [ %50, %49 ], [ 0, %0 ]
  %14 = call i32 (i8*, ...) @__isoc99_scanf(i8* getelementptr inbounds ([4 x i8], [4 x i8]* @.str.1, i64 0, i64 0), [50 x i8]* nonnull %2)
  %15 = call i64 @strlen(i8* noundef nonnull %8) #7
  %16 = trunc i64 %15 to i32
  %17 = shl i64 %15, 32
  %18 = ashr exact i64 %17, 32
  %19 = getelementptr inbounds [50 x i8], [50 x i8]* %2, i64 0, i64 %18
  %20 = getelementptr inbounds i8, i8* %19, i64 -2
  %21 = getelementptr inbounds i8, i8* %19, i64 -3
  %22 = call i32 @strcmp(i8* noundef nonnull %20, i8* noundef nonnull dereferenceable(3) getelementptr inbounds ([3 x i8], [3 x i8]* @.str.2, i64 0, i64 0)) #7
  %23 = icmp eq i32 %22, 0
  br i1 %23, label %24, label %26

24:                                               ; preds = %12
  %25 = icmp sgt i32 %16, 2
  br i1 %25, label %36, label %44

26:                                               ; preds = %12
  %27 = call i32 @strcmp(i8* noundef nonnull %20, i8* noundef nonnull dereferenceable(3) getelementptr inbounds ([3 x i8], [3 x i8]* @.str.3, i64 0, i64 0)) #7
  %28 = icmp eq i32 %27, 0
  br i1 %28, label %29, label %31

29:                                               ; preds = %26
  %30 = icmp sgt i32 %16, 2
  br i1 %30, label %36, label %44

31:                                               ; preds = %26
  %32 = call i32 @strcmp(i8* noundef nonnull %21, i8* noundef nonnull dereferenceable(4) getelementptr inbounds ([4 x i8], [4 x i8]* @.str.4, i64 0, i64 0)) #7
  %33 = icmp eq i32 %32, 0
  br i1 %33, label %34, label %49

34:                                               ; preds = %31
  %35 = icmp sgt i32 %16, 3
  br i1 %35, label %36, label %44

36:                                               ; preds = %34, %29, %24
  %37 = phi i64 [ 4294967294, %24 ], [ 4294967294, %29 ], [ 4294967293, %34 ]
  %38 = phi i64 [ 4294967293, %24 ], [ 4294967293, %29 ], [ 4294967292, %34 ]
  %39 = add i64 %15, %37
  %40 = and i64 %39, 4294967295
  call void @llvm.memcpy.p0i8.p0i8.i64(i8* nonnull align 16 %5, i8* nonnull align 16 %3, i64 %40, i1 false)
  %41 = add i64 %15, %38
  %42 = and i64 %41, 4294967295
  %43 = add nuw nsw i64 %42, 1
  br label %44

44:                                               ; preds = %36, %34, %29, %24
  %45 = phi i64 [ 0, %24 ], [ 0, %29 ], [ 0, %34 ], [ %43, %36 ]
  %46 = and i64 %45, 4294967295
  %47 = getelementptr inbounds [50 x i8], [50 x i8]* %4, i64 0, i64 %46
  store i8 0, i8* %47, align 1, !tbaa !9
  %48 = call i32 @puts(i8* nonnull %9)
  br label %49

49:                                               ; preds = %44, %31
  %50 = add nuw nsw i32 %13, 1
  %51 = load i32, i32* %1, align 4, !tbaa !5
  %52 = icmp slt i32 %50, %51
  br i1 %52, label %12, label %53, !llvm.loop !10

53:                                               ; preds = %49, %0
  call void @llvm.lifetime.end.p0i8(i64 50, i8* nonnull %9) #6
  call void @llvm.lifetime.end.p0i8(i64 50, i8* nonnull %8) #6
  call void @llvm.lifetime.end.p0i8(i64 4, i8* nonnull %6) #6
  ret i32 0
}

; Function Attrs: argmemonly mustprogress nofree nosync nounwind willreturn
declare void @llvm.lifetime.start.p0i8(i64 immarg, i8* nocapture) #1

; Function Attrs: nofree nounwind
declare noundef i32 @__isoc99_scanf(i8* nocapture noundef readonly, ...) local_unnamed_addr #2

; Function Attrs: argmemonly mustprogress nofree nounwind readonly willreturn
declare i64 @strlen(i8* nocapture) local_unnamed_addr #3

; Function Attrs: argmemonly mustprogress nofree nounwind readonly willreturn
declare i32 @strcmp(i8* nocapture, i8* nocapture) local_unnamed_addr #3

; Function Attrs: argmemonly mustprogress nofree nosync nounwind willreturn
declare void @llvm.lifetime.end.p0i8(i64 immarg, i8* nocapture) #1

; Function Attrs: nofree nounwind
declare noundef i32 @puts(i8* nocapture noundef readonly) local_unnamed_addr #4

; Function Attrs: argmemonly nofree nounwind willreturn
declare void @llvm.memcpy.p0i8.p0i8.i64(i8* noalias nocapture writeonly, i8* noalias nocapture readonly, i64, i1 immarg) #5


!llvm.module.flags = !{!0, !1, !2, !3}
!llvm.ident = !{!4}

!0 = !{i32 1, !"wchar_size", i32 4}
!1 = !{i32 7, !"PIC Level", i32 2}
!2 = !{i32 7, !"PIE Level", i32 2}
!3 = !{i32 7, !"uwtable", i32 1}
!4 = !{!"clang version 13.0.0"}
!5 = !{!6, !6, i64 0}
!6 = !{!"int", !7, i64 0}
!7 = !{!"omnipotent char", !8, i64 0}
!8 = !{!"Simple C/C++ TBAA"}
!9 = !{!7, !7, i64 0}
!10 = distinct !{!10, !11}
!11 = !{!"llvm.loop.mustprogress"}
